; Function Attrs: mustprogress nounwind uwtable
define dso_local void @LLVMAddTargetLibraryInfo(ptr noundef %0, ptr noundef %1) local_unnamed_addr #0 {
  %3 = tail call noalias noundef nonnull dereferenceable(328) ptr @_Znwm(i64 noundef 328) #10
  tail call void @_ZN4llvm28TargetLibraryInfoWrapperPassC1ERKNS_21TargetLibraryInfoImplE(ptr noundef nonnull align 8 dereferenceable(328) %3, ptr noundef nonnull align 8 dereferenceable(208) %0) #9
  %4 = load ptr, ptr %1, align 8
  %5 = getelementptr inbounds i8, ptr %4, i64 16
  %6 = load ptr, ptr %5, align 8
  tail call void %6(ptr noundef nonnull align 8 dereferenceable(8) %1, ptr noundef nonnull %3) #9
  ret void
}